; Function Attrs: mustprogress nounwind uwtable
define dso_local void @_ZNK4llvm6object8TapiFile15printSymbolNameERNS_11raw_ostreamENS0_11DataRefImplE(ptr dead_on_unwind noalias nocapture writable writeonly sret(%"class.llvm::Error") align 8 %0, ptr nocapture noundef nonnull readonly align 8 dereferenceable(80) %1, ptr noundef nonnull align 8 dereferenceable(48) %2, i64 %3) unnamed_addr #0 align 2 {
  %5 = getelementptr inbounds nuw i8, ptr %1, i64 48
  %6 = and i64 %3, 4294967295
  %7 = load ptr, ptr %5, align 8
  %8 = getelementptr inbounds %"struct.llvm::object::TapiFile::Symbol", ptr %7, i64 %6
  %.sroa.01.0.copyload = load ptr, ptr %8, align 8
  %.sroa.22.0..sroa_idx = getelementptr inbounds i8, ptr %8, i64 8
  %.sroa.22.0.copyload = load i64, ptr %.sroa.22.0..sroa_idx, align 8
  %9 = getelementptr inbounds nuw i8, ptr %2, i64 24
  %10 = load ptr, ptr %9, align 8
  %11 = getelementptr inbounds nuw i8, ptr %2, i64 32
  %12 = load ptr, ptr %11, align 8
  %13 = ptrtoint ptr %10 to i64
  %14 = ptrtoint ptr %12 to i64
  %15 = sub i64 %13, %14
  %16 = icmp ugt i64 %.sroa.22.0.copyload, %15
  br i1 %16, label %17, label %19

17:                                               ; preds = %4
  %18 = tail call noundef nonnull align 8 dereferenceable(48) ptr @_ZN4llvm11raw_ostream5writeEPKcm(ptr noundef nonnull align 8 dereferenceable(48) %2, ptr noundef %.sroa.01.0.copyload, i64 noundef %.sroa.22.0.copyload) #14
  %.phi.trans.insert = getelementptr inbounds nuw i8, ptr %18, i64 32
  %.pre = load ptr, ptr %.phi.trans.insert, align 8
  br label %_ZN4llvm11raw_ostreamlsENS_9StringRefE.exit

19:                                               ; preds = %4
  %.not.i = icmp eq i64 %.sroa.22.0.copyload, 0
  br i1 %.not.i, label %_ZN4llvm11raw_ostreamlsENS_9StringRefE.exit, label %20

20:                                               ; preds = %19
  tail call void @llvm.memcpy.p0.p0.i64(ptr align 1 %12, ptr align 1 %.sroa.01.0.copyload, i64 %.sroa.22.0.copyload, i1 false)
  %21 = load ptr, ptr %11, align 8
  %22 = getelementptr inbounds i8, ptr %21, i64 %.sroa.22.0.copyload
  store ptr %22, ptr %11, align 8
  br label %_ZN4llvm11raw_ostreamlsENS_9StringRefE.exit

_ZN4llvm11raw_ostreamlsENS_9StringRefE.exit:      ; preds = %17, %19, %20
  %23 = phi ptr [ %.pre, %17 ], [ %22, %20 ], [ %12, %19 ]
  %.0.i = phi ptr [ %18, %17 ], [ %2, %20 ], [ %2, %19 ]
  %24 = getelementptr inbounds nuw i8, ptr %8, i64 16
  %.sroa.0.0.copyload = load ptr, ptr %24, align 8
  %.sroa.2.0..sroa_idx = getelementptr inbounds i8, ptr %8, i64 24
  %.sroa.2.0.copyload = load i64, ptr %.sroa.2.0..sroa_idx, align 8
  %25 = getelementptr inbounds nuw i8, ptr %.0.i, i64 24
  %26 = load ptr, ptr %25, align 8
  %27 = getelementptr inbounds nuw i8, ptr %.0.i, i64 32
  %28 = ptrtoint ptr %26 to i64
  %29 = ptrtoint ptr %23 to i64
  %30 = sub i64 %28, %29
  %31 = icmp ugt i64 %.sroa.2.0.copyload, %30
  br i1 %31, label %32, label %34

32:                                               ; preds = %_ZN4llvm11raw_ostreamlsENS_9StringRefE.exit
  %33 = tail call noundef nonnull align 8 dereferenceable(48) ptr @_ZN4llvm11raw_ostream5writeEPKcm(ptr noundef nonnull align 8 dereferenceable(48) %.0.i, ptr noundef %.sroa.0.0.copyload, i64 noundef %.sroa.2.0.copyload) #14
  br label %_ZN4llvm12ErrorSuccessD2Ev.exit

34:                                               ; preds = %_ZN4llvm11raw_ostreamlsENS_9StringRefE.exit
  %.not.i8 = icmp eq i64 %.sroa.2.0.copyload, 0
  br i1 %.not.i8, label %_ZN4llvm12ErrorSuccessD2Ev.exit, label %35

35:                                               ; preds = %34
  tail call void @llvm.memcpy.p0.p0.i64(ptr align 1 %23, ptr align 1 %.sroa.0.0.copyload, i64 %.sroa.2.0.copyload, i1 false)
  %36 = load ptr, ptr %27, align 8
  %37 = getelementptr inbounds i8, ptr %36, i64 %.sroa.2.0.copyload
  store ptr %37, ptr %27, align 8
  br label %_ZN4llvm12ErrorSuccessD2Ev.exit

_ZN4llvm12ErrorSuccessD2Ev.exit:                  ; preds = %35, %34, %32
  store ptr null, ptr %0, align 8
  ret void
}